(i__main__
REQUEST
p0
(dp1
S'url'
p2
S'http://127.0.0.1:5000/'
p3
sS'host'
p4
S'127.0.0.1'
p5
sS'dt'
p6
S'Thu Dec 20 20:34:50 2012'
p7
sb.(i__main__
REQUEST
p0
(dp1
S'url'
p2
S'http://127.0.0.1:5000/index.html'
p3
sS'host'
p4
S'127.0.0.1'
p5
sS'dt'
p6
S'Thu Dec 20 22:34:51 2012'
p7
sb.(i__main__
REQUEST
p0
(dp1
S'url'
p2
S'http://127.0.0.1:5000/'
p3
sS'host'
p4
S'127.0.0.1'
p5
sS'dt'
p6
S'Thu Dec 20 22:36:01 2012'
p7
sb.