(i__main__
REQUEST
p0
(dp1
S'url'
p2
S'http://127.0.0.1:5000/index.html'
p3
sS'host'
p4
S'127.0.0.1'
p5
sS'dt'
p6
S'Fri Dec 21 11:03:01 2012'
p7
sb.(i__main__
REQUEST
p0
(dp1
S'url'
p2
S'http://127.0.0.1:5000/top1.html'
p3
sS'host'
p4
S'127.0.0.1'
p5
sS'dt'
p6
S'Fri Dec 21 11:03:01 2012'
p7
sb.(i__main__
REQUEST
p0
(dp1
S'url'
p2
S'http://127.0.0.1:5000/page1.html'
p3
sS'host'
p4
S'127.0.0.1'
p5
sS'dt'
p6
S'Fri Dec 21 11:03:03 2012'
p7
sb.(i__main__
REQUEST
p0
(dp1
S'url'
p2
S'http://127.0.0.1:5000/index.html'
p3
sS'host'
p4
S'127.0.0.1'
p5
sS'dt'
p6
S'Fri Dec 21 11:03:04 2012'
p7
sb.(i__main__
REQUEST
p0
(dp1
S'url'
p2
S'http://127.0.0.1:5000/'
p3
sS'host'
p4
S'127.0.0.1'
p5
sS'dt'
p6
S'Fri Dec 21 11:09:58 2012'
p7
sb.(i__main__
REQUEST
p0
(dp1
S'url'
p2
S'http://127.0.0.1:5000/top2.html'
p3
sS'host'
p4
S'127.0.0.1'
p5
sS'dt'
p6
S'Fri Dec 21 11:09:59 2012'
p7
sb.(i__main__
REQUEST
p0
(dp1
S'url'
p2
S'http://127.0.0.1:5000/page8.html'
p3
sS'host'
p4
S'127.0.0.1'
p5
sS'dt'
p6
S'Fri Dec 21 11:09:59 2012'
p7
sb.(i__main__
REQUEST
p0
(dp1
S'url'
p2
S'http://127.0.0.1:5000/index.html'
p3
sS'host'
p4
S'127.0.0.1'
p5
sS'dt'
p6
S'Fri Dec 21 11:13:02 2012'
p7
sb.(i__main__
REQUEST
p0
(dp1
S'url'
p2
S'http://127.0.0.1:5000/top2.html'
p3
sS'host'
p4
S'127.0.0.1'
p5
sS'dt'
p6
S'Fri Dec 21 11:13:02 2012'
p7
sb.(i__main__
REQUEST
p0
(dp1
S'url'
p2
S'http://127.0.0.1:5000/page9.html'
p3
sS'host'
p4
S'127.0.0.1'
p5
sS'dt'
p6
S'Fri Dec 21 11:13:03 2012'
p7
sb.(i__main__
REQUEST
p0
(dp1
S'url'
p2
S'http://127.0.0.1:5000/index.html'
p3
sS'host'
p4
S'127.0.0.1'
p5
sS'dt'
p6
S'Fri Dec 21 11:13:04 2012'
p7
sb.(i__main__
REQUEST
p0
(dp1
S'url'
p2
S'http://127.0.0.1:5000/top1.html'
p3
sS'host'
p4
S'127.0.0.1'
p5
sS'dt'
p6
S'Fri Dec 21 11:13:04 2012'
p7
sb.(i__main__
REQUEST
p0
(dp1
S'url'
p2
S'http://127.0.0.1:5000/page8.html'
p3
sS'host'
p4
S'127.0.0.1'
p5
sS'dt'
p6
S'Fri Dec 21 11:13:05 2012'
p7
sb.(i__main__
REQUEST
p0
(dp1
S'url'
p2
S'http://127.0.0.1:5000/index.html'
p3
sS'host'
p4
S'127.0.0.1'
p5
sS'dt'
p6
S'Fri Dec 21 11:13:06 2012'
p7
sb.(i__main__
REQUEST
p0
(dp1
S'url'
p2
S'http://127.0.0.1:5000/top4.html'
p3
sS'host'
p4
S'127.0.0.1'
p5
sS'dt'
p6
S'Fri Dec 21 11:13:07 2012'
p7
sb.(i__main__
REQUEST
p0
(dp1
S'url'
p2
S'http://127.0.0.1:5000/page8.html'
p3
sS'host'
p4
S'127.0.0.1'
p5
sS'dt'
p6
S'Fri Dec 21 11:13:07 2012'
p7
sb.(i__main__
REQUEST
p0
(dp1
S'url'
p2
S'http://127.0.0.1:5000/index.html'
p3
sS'host'
p4
S'127.0.0.1'
p5
sS'dt'
p6
S'Fri Dec 21 11:13:09 2012'
p7
sb.(i__main__
REQUEST
p0
(dp1
S'url'
p2
S'http://127.0.0.1:5000/top1.html'
p3
sS'host'
p4
S'127.0.0.1'
p5
sS'dt'
p6
S'Fri Dec 21 11:13:10 2012'
p7
sb.(i__main__
REQUEST
p0
(dp1
S'url'
p2
S'http://127.0.0.1:5000/page8.html'
p3
sS'host'
p4
S'127.0.0.1'
p5
sS'dt'
p6
S'Fri Dec 21 11:13:11 2012'
p7
sb.(i__main__
REQUEST
p0
(dp1
S'url'
p2
S'http://127.0.0.1:5000/index.html'
p3
sS'host'
p4
S'127.0.0.1'
p5
sS'dt'
p6
S'Fri Dec 21 11:13:12 2012'
p7
sb.(i__main__
REQUEST
p0
(dp1
S'url'
p2
S'http://127.0.0.1:5000/top2.html'
p3
sS'host'
p4
S'127.0.0.1'
p5
sS'dt'
p6
S'Fri Dec 21 11:14:46 2012'
p7
sb.(i__main__
REQUEST
p0
(dp1
S'url'
p2
S'http://127.0.0.1:5000/page3.html'
p3
sS'host'
p4
S'127.0.0.1'
p5
sS'dt'
p6
S'Fri Dec 21 11:14:47 2012'
p7
sb.(i__main__
REQUEST
p0
(dp1
S'url'
p2
S'http://127.0.0.1:5000/index.html'
p3
sS'host'
p4
S'127.0.0.1'
p5
sS'dt'
p6
S'Fri Dec 21 11:14:48 2012'
p7
sb.