(i__main__
REQUEST
p0
(dp1
S'url'
p2
S'http://127.0.0.1:5000/top2.html'
p3
sS'host'
p4
S'127.0.0.1'
p5
sS'dt'
p6
S'Thu Dec 20 01:36:43 2012'
p7
sb.(i__main__
REQUEST
p0
(dp1
S'url'
p2
S'http://127.0.0.1:5000/page3.html'
p3
sS'host'
p4
S'127.0.0.1'
p5
sS'dt'
p6
S'Thu Dec 20 01:36:44 2012'
p7
sb.(i__main__
REQUEST
p0
(dp1
S'url'
p2
S'http://127.0.0.1:5000/top2.html'
p3
sS'host'
p4
S'127.0.0.1'
p5
sS'dt'
p6
S'Fri Dec 21 00:36:44 2012'
p7
sb.(i__main__
REQUEST
p0
(dp1
S'url'
p2
S'http://127.0.0.1:5000/page4.html'
p3
sS'host'
p4
S'127.0.0.1'
p5
sS'dt'
p6
S'Fri Dec 21 00:42:06 2012'
p7
sb.(i__main__
REQUEST
p0
(dp1
S'url'
p2
S'http://127.0.0.1:5000/top3.html'
p3
sS'host'
p4
S'127.0.0.1'
p5
sS'dt'
p6
S'Fri Dec 21 00:42:06 2012'
p7
sb.(i__main__
REQUEST
p0
(dp1
S'url'
p2
S'http://127.0.0.1:5000/page4.html'
p3
sS'host'
p4
S'127.0.0.1'
p5
sS'dt'
p6
S'Fri Dec 21 01:42:07 2012'
p7
sb.(i__main__
REQUEST
p0
(dp1
S'url'
p2
S'http://127.0.0.1:5000/index.html'
p3
sS'host'
p4
S'127.0.0.1'
p5
sS'dt'
p6
S'Fri Dec 21 01:42:08 2012'
p7
sb.(i__main__
REQUEST
p0
(dp1
S'url'
p2
S'http://127.0.0.1:5000/top2.html'
p3
sS'host'
p4
S'127.0.0.1'
p5
sS'dt'
p6
S'Fri Dec 21 01:52:08 2012'
p7
sb.(i__main__
REQUEST
p0
(dp1
S'url'
p2
S'http://127.0.0.1:5000/index.html'
p3
sS'host'
p4
S'127.0.0.1'
p5
sS'dt'
p6
S'Fri Dec 21 01:52:09 2012'
p7
sb.(i__main__
REQUEST
p0
(dp1
S'url'
p2
S'http://127.0.0.1:5000/top4.html'
p3
sS'host'
p4
S'127.0.0.1'
p5
sS'dt'
p6
S'Fri Dec 21 01:52:10 2012'
p7
sb.(i__main__
REQUEST
p0
(dp1
S'url'
p2
S'http://127.0.0.1:5000/page7.html'
p3
sS'host'
p4
S'127.0.0.1'
p5
sS'dt'
p6
S'Fri Dec 21 01:52:11 2012'
p7
sb.(i__main__
REQUEST
p0
(dp1
S'url'
p2
S'http://127.0.0.1:5000/index.html'
p3
sS'host'
p4
S'127.0.0.1'
p5
sS'dt'
p6
S'Fri Dec 21 01:54:19 2012'
p7
sb.(i__main__
REQUEST
p0
(dp1
S'url'
p2
S'http://127.0.0.1:5000/top1.html'
p3
sS'host'
p4
S'127.0.0.1'
p5
sS'dt'
p6
S'Fri Dec 21 01:54:20 2012'
p7
sb.(i__main__
REQUEST
p0
(dp1
S'url'
p2
S'http://127.0.0.1:5000/page8.html'
p3
sS'host'
p4
S'127.0.0.1'
p5
sS'dt'
p6
S'Fri Dec 21 01:54:21 2012'
p7
sb.(i__main__
REQUEST
p0
(dp1
S'url'
p2
S'http://127.0.0.1:5000/index.html'
p3
sS'host'
p4
S'127.0.0.1'
p5
sS'dt'
p6
S'Fri Dec 21 01:54:23 2012'
p7
sb.(i__main__
REQUEST
p0
(dp1
S'url'
p2
S'http://127.0.0.1:5000/top3.html'
p3
sS'host'
p4
S'127.0.0.1'
p5
sS'dt'
p6
S'Fri Dec 21 01:54:24 2012'
p7
sb.(i__main__
REQUEST
p0
(dp1
S'url'
p2
S'http://127.0.0.1:5000/page5.html'
p3
sS'host'
p4
S'127.0.0.1'
p5
sS'dt'
p6
S'Fri Dec 21 01:54:24 2012'
p7
sb.(i__main__
REQUEST
p0
(dp1
S'url'
p2
S'http://127.0.0.1:5000/top3.html'
p3
sS'host'
p4
S'127.0.0.1'
p5
sS'dt'
p6
S'Fri Dec 21 02:02:22 2012'
p7
sb.(i__main__
REQUEST
p0
(dp1
S'url'
p2
S'http://127.0.0.1:5000/page9.html'
p3
sS'host'
p4
S'127.0.0.1'
p5
sS'dt'
p6
S'Fri Dec 21 02:02:23 2012'
p7
sb.(i__main__
REQUEST
p0
(dp1
S'url'
p2
S'http://127.0.0.1:5000/index.html'
p3
sS'host'
p4
S'127.0.0.1'
p5
sS'dt'
p6
S'Fri Dec 21 02:02:24 2012'
p7
sb.(i__main__
REQUEST
p0
(dp1
S'url'
p2
S'http://127.0.0.1:5000/top1.html'
p3
sS'host'
p4
S'127.0.0.1'
p5
sS'dt'
p6
S'Fri Dec 21 02:15:25 2012'
p7
sb.(i__main__
REQUEST
p0
(dp1
S'url'
p2
S'http://127.0.0.1:5000/page8.html'
p3
sS'host'
p4
S'127.0.0.1'
p5
sS'dt'
p6
S'Fri Dec 21 02:33:26 2012'
p7
sb.(i__main__
REQUEST
p0
(dp1
S'url'
p2
S'http://127.0.0.1:5000/page9.html'
p3
sS'host'
p4
S'127.0.0.1'
p5
sS'dt'
p6
S'Fri Dec 21 02:55:59 2012'
p7
sb.