(i__main__
REQUEST
p0
(dp1
S'url'
p2
S'http://127.0.0.1:5000/top2.html'
p3
sS'host'
p4
S'127.0.0.1'
p5
sS'dt'
p6
S'Fri Dec 21 08:15:04 2012'
p7
sb.(i__main__
REQUEST
p0
(dp1
S'url'
p2
S'http://127.0.0.1:5000/page3.html'
p3
sS'host'
p4
S'127.0.0.1'
p5
sS'dt'
p6
S'Fri Dec 21 08:15:06 2012'
p7
sb.(i__main__
REQUEST
p0
(dp1
S'url'
p2
S'http://127.0.0.1:5000/top2.html'
p3
sS'host'
p4
S'127.0.0.1'
p5
sS'dt'
p6
S'Fri Dec 21 09:15:08 2012'
p7
sb.(i__main__
REQUEST
p0
(dp1
S'url'
p2
S'http://127.0.0.1:5000/page4.html'
p3
sS'host'
p4
S'127.0.0.1'
p5
sS'dt'
p6
S'Fri Dec 21 09:16:13 2012'
p7
sb.(i__main__
REQUEST
p0
(dp1
S'url'
p2
S'http://127.0.0.1:5000/top3.html'
p3
sS'host'
p4
S'127.0.0.1'
p5
sS'dt'
p6
S'Fri Dec 21 09:16:14 2012'
p7
sb.(i__main__
REQUEST
p0
(dp1
S'url'
p2
S'http://127.0.0.1:5000/page8.html'
p3
sS'host'
p4
S'127.0.0.1'
p5
sS'dt'
p6
S'Fri Dec 21 10:16:16 2012'
p7
sb.(i__main__
REQUEST
p0
(dp1
S'url'
p2
S'http://127.0.0.1:5000/index.html'
p3
sS'host'
p4
S'127.0.0.1'
p5
sS'dt'
p6
S'Fri Dec 21 10:16:18 2012'
p7
sb.(i__main__
REQUEST
p0
(dp1
S'url'
p2
S'http://127.0.0.1:5000/top1.html'
p3
sS'host'
p4
S'127.0.0.1'
p5
sS'dt'
p6
S'Fri Dec 21 10:16:19 2012'
p7
sb.(i__main__
REQUEST
p0
(dp1
S'url'
p2
S'http://127.0.0.1:5000/page0.html'
p3
sS'host'
p4
S'127.0.0.1'
p5
sS'dt'
p6
S'Fri Dec 21 10:16:21 2012'
p7
sb.(i__main__
REQUEST
p0
(dp1
S'url'
p2
S'http://127.0.0.1:5000/top1.html'
p3
sS'host'
p4
S'127.0.0.1'
p5
sS'dt'
p6
S'Fri Dec 21 10:16:24 2012'
p7
sb.(i__main__
REQUEST
p0
(dp1
S'url'
p2
S'http://127.0.0.1:5000/page8.html'
p3
sS'host'
p4
S'127.0.0.1'
p5
sS'dt'
p6
S'Fri Dec 21 10:16:25 2012'
p7
sb.(i__main__
REQUEST
p0
(dp1
S'url'
p2
S'http://127.0.0.1:5000/index.html'
p3
sS'host'
p4
S'127.0.0.1'
p5
sS'dt'
p6
S'Fri Dec 21 10:16:27 2012'
p7
sb.(i__main__
REQUEST
p0
(dp1
S'url'
p2
S'http://127.0.0.1:5000/top4.html'
p3
sS'host'
p4
S'127.0.0.1'
p5
sS'dt'
p6
S'Fri Dec 21 10:16:29 2012'
p7
sb.(i__main__
REQUEST
p0
(dp1
S'url'
p2
S'http://127.0.0.1:5000/page6.html'
p3
sS'host'
p4
S'127.0.0.1'
p5
sS'dt'
p6
S'Fri Dec 21 10:16:31 2012'
p7
sb.(i__main__
REQUEST
p0
(dp1
S'url'
p2
S'http://127.0.0.1:5000/index.html'
p3
sS'host'
p4
S'127.0.0.1'
p5
sS'dt'
p6
S'Fri Dec 21 10:16:38 2012'
p7
sb.